; Function Attrs: nofree nounwind memory(readwrite, argmem: read) uwtable
define noundef ptr @Abc_CexDup(ptr noundef readonly %0, i32 noundef %1) local_unnamed_addr #3 {
  %3 = icmp eq ptr %0, inttoptr (i64 1 to ptr)
  br i1 %3, label %.loopexit, label %4

4:                                                ; preds = %2
  %5 = icmp eq i32 %1, -1
  %6 = getelementptr inbounds nuw i8, ptr %0, i64 8
  %7 = load i32, ptr %6, align 4, !tbaa !3
  %. = select i1 %5, i32 %7, i32 %1
  %8 = getelementptr inbounds nuw i8, ptr %0, i64 12
  %9 = load i32, ptr %8, align 4, !tbaa !8
  %10 = getelementptr inbounds nuw i8, ptr %0, i64 4
  %11 = load i32, ptr %10, align 4, !tbaa !11
  %12 = add nsw i32 %11, 1
  %13 = mul nsw i32 %12, %9
  %14 = add nsw i32 %13, %.
  %15 = ashr i32 %14, 5
  %16 = and i32 %14, 31
  %17 = icmp ne i32 %16, 0
  %18 = zext i1 %17 to i32
  %19 = add nsw i32 %15, %18
  %20 = sext i32 %19 to i64
  %21 = shl nsw i64 %20, 2
  %22 = add nsw i64 %21, 20
  %calloc.i = tail call ptr @calloc(i64 1, i64 %22)
  %23 = getelementptr inbounds nuw i8, ptr %calloc.i, i64 8
  store i32 %., ptr %23, align 4, !tbaa !3
  %24 = getelementptr inbounds nuw i8, ptr %calloc.i, i64 12
  store i32 %9, ptr %24, align 4, !tbaa !8
  %25 = getelementptr inbounds nuw i8, ptr %calloc.i, i64 16
  store i32 %14, ptr %25, align 4, !tbaa !9
  %26 = load i32, ptr %0, align 4, !tbaa !10
  store i32 %26, ptr %calloc.i, align 4, !tbaa !10
  %27 = getelementptr inbounds nuw i8, ptr %calloc.i, i64 4
  store i32 %11, ptr %27, align 4, !tbaa !11
  %28 = getelementptr inbounds nuw i8, ptr %0, i64 16
  %29 = load i32, ptr %28, align 4, !tbaa !9
  %30 = icmp slt i32 %7, %29
  br i1 %30, label %.lr.ph, label %.loopexit

.lr.ph:                                           ; preds = %4
  %31 = getelementptr inbounds nuw i8, ptr %0, i64 20
  %32 = getelementptr inbounds nuw i8, ptr %calloc.i, i64 20
  br label %33

33:                                               ; preds = %.lr.ph, %52
  %.026 = phi i32 [ %7, %.lr.ph ], [ %53, %52 ]
  %34 = ashr i32 %.026, 5
  %35 = sext i32 %34 to i64
  %36 = getelementptr inbounds i32, ptr %31, i64 %35
  %37 = load i32, ptr %36, align 4, !tbaa !12
  %38 = and i32 %.026, 31
  %39 = shl nuw i32 1, %38
  %40 = and i32 %37, %39
  %.not = icmp eq i32 %40, 0
  br i1 %.not, label %52, label %41

41:                                               ; preds = %33
  %42 = load i32, ptr %23, align 4, !tbaa !3
  %43 = sub i32 %.026, %7
  %44 = add i32 %43, %42
  %45 = and i32 %44, 31
  %46 = shl nuw i32 1, %45
  %47 = ashr i32 %44, 5
  %48 = sext i32 %47 to i64
  %49 = getelementptr inbounds i32, ptr %32, i64 %48
  %50 = load i32, ptr %49, align 4, !tbaa !12
  %51 = or i32 %46, %50
  store i32 %51, ptr %49, align 4, !tbaa !12
  br label %52

52:                                               ; preds = %33, %41
  %53 = add nsw i32 %.026, 1
  %exitcond.not = icmp eq i32 %53, %29
  br i1 %exitcond.not, label %.loopexit, label %33, !llvm.loop !16

.loopexit:                                        ; preds = %52, %4, %2
  %.022 = phi ptr [ inttoptr (i64 1 to ptr), %2 ], [ %calloc.i, %4 ], [ %calloc.i, %52 ]
  ret ptr %.022
}